; Function Attrs: mustprogress uwtable
define hidden void @_ZN4cvc58internal6theory23SharedSolverDistributed12assertSharedENS0_12NodeTemplateILb0EEEbS4_(ptr noundef nonnull align 8 dereferenceable(976) %this, ptr nocapture noundef readonly %n, i1 noundef zeroext %polarity, ptr nocapture noundef readonly %reason) unnamed_addr #3 align 2 personality ptr @__gxx_personality_v0 {
entry:
  %agg.tmp = alloca %"class.cvc5::internal::NodeTemplate.47", align 8
  %agg.tmp2 = alloca %"class.cvc5::internal::NodeTemplate.47", align 8
  %d_sharedTerms = getelementptr inbounds i8, ptr %this, i64 32
  %0 = load ptr, ptr %n, align 8
  store ptr %0, ptr %agg.tmp, align 8
  %1 = load ptr, ptr %reason, align 8
  store ptr %1, ptr %agg.tmp2, align 8
  call void @_ZN4cvc58internal19SharedTermsDatabase12assertSharedENS0_12NodeTemplateILb0EEEbS3_(ptr noundef nonnull align 8 dereferenceable(592) %d_sharedTerms, ptr noundef nonnull %agg.tmp, i1 noundef zeroext %polarity, ptr noundef nonnull %agg.tmp2)
  ret void
}